target datalayout = "e-m:e-p270:32:32-p271:32:32-p272:64:64-i64:64-i128:128-f80:128-n8:16:32:64-S128"
target triple = "x86_64-pc-linux-gnu"

%class.XMMRegister = type { i32 }

@.str = private unnamed_addr constant [46 x i8] c"src/hotspot/cpu/x86/c2_MacroAssembler_x86.cpp\00", align 1
@g_assert_poison = external global ptr, align 8
@.str.4 = private unnamed_addr constant [20 x i8] c"Unsupported type %s\00", align 1

; Function Attrs: mustprogress nounwind uwtable
define linkonce_odr hidden void @_ZN14MacroAssembler6vpadddE11XMMRegisterS0_S0_i(ptr noundef nonnull align 8 dereferenceable(40) %0, i32 %1, i32 %2, i32 %3, i32 noundef %4) #1 comdat align 2 {
  %6 = alloca %class.XMMRegister, align 4
  %7 = alloca %class.XMMRegister, align 4
  %8 = alloca %class.XMMRegister, align 4
  %9 = alloca ptr, align 8
  %10 = alloca i32, align 4
  %11 = alloca %class.XMMRegister, align 4
  %12 = alloca %class.XMMRegister, align 4
  %13 = alloca %class.XMMRegister, align 4
  %14 = getelementptr inbounds %class.XMMRegister, ptr %6, i32 0, i32 0
  store i32 %1, ptr %14, align 4
  %15 = getelementptr inbounds %class.XMMRegister, ptr %7, i32 0, i32 0
  store i32 %2, ptr %15, align 4
  %16 = getelementptr inbounds %class.XMMRegister, ptr %8, i32 0, i32 0
  store i32 %3, ptr %16, align 4
  store ptr %0, ptr %9, align 8
  store i32 %4, ptr %10, align 4
  %17 = load ptr, ptr %9, align 8
  call void @llvm.memcpy.p0.p0.i64(ptr align 4 %11, ptr align 4 %6, i64 4, i1 false)
  call void @llvm.memcpy.p0.p0.i64(ptr align 4 %12, ptr align 4 %7, i64 4, i1 false)
  call void @llvm.memcpy.p0.p0.i64(ptr align 4 %13, ptr align 4 %8, i64 4, i1 false)
  %18 = load i32, ptr %10, align 4
  %19 = getelementptr inbounds %class.XMMRegister, ptr %11, i32 0, i32 0
  %20 = load i32, ptr %19, align 4
  %21 = getelementptr inbounds %class.XMMRegister, ptr %12, i32 0, i32 0
  %22 = load i32, ptr %21, align 4
  %23 = getelementptr inbounds %class.XMMRegister, ptr %13, i32 0, i32 0
  %24 = load i32, ptr %23, align 4
  call void @_ZN9Assembler6vpadddE11XMMRegisterS0_S0_i(ptr noundef nonnull align 8 dereferenceable(40) %17, i32 %20, i32 %22, i32 %24, i32 noundef %18)
  ret void
}

; Function Attrs: mustprogress nounwind uwtable
define hidden void @_ZN17C2_MacroAssembler5vpaddE9BasicType11XMMRegisterS1_S1_i(ptr noundef nonnull align 8 dereferenceable(40) %0, i8 noundef zeroext %1, i32 %2, i32 %3, i32 %4, i32 noundef %5) #1 align 2 {
  %7 = alloca %class.XMMRegister, align 4
  %8 = alloca %class.XMMRegister, align 4
  %9 = alloca %class.XMMRegister, align 4
  %10 = alloca ptr, align 8
  %11 = alloca i8, align 1
  %12 = alloca i32, align 4
  %13 = alloca %class.XMMRegister, align 4
  %14 = alloca %class.XMMRegister, align 4
  %15 = alloca %class.XMMRegister, align 4
  %16 = alloca %class.XMMRegister, align 4
  %17 = alloca %class.XMMRegister, align 4
  %18 = alloca %class.XMMRegister, align 4
  %19 = alloca %class.XMMRegister, align 4
  %20 = alloca %class.XMMRegister, align 4
  %21 = alloca %class.XMMRegister, align 4
  %22 = alloca %class.XMMRegister, align 4
  %23 = alloca %class.XMMRegister, align 4
  %24 = alloca %class.XMMRegister, align 4
  %25 = alloca %class.XMMRegister, align 4
  %26 = alloca %class.XMMRegister, align 4
  %27 = alloca %class.XMMRegister, align 4
  %28 = alloca %class.XMMRegister, align 4
  %29 = alloca %class.XMMRegister, align 4
  %30 = alloca %class.XMMRegister, align 4
  %31 = getelementptr inbounds %class.XMMRegister, ptr %7, i32 0, i32 0
  store i32 %2, ptr %31, align 4
  %32 = getelementptr inbounds %class.XMMRegister, ptr %8, i32 0, i32 0
  store i32 %3, ptr %32, align 4
  %33 = getelementptr inbounds %class.XMMRegister, ptr %9, i32 0, i32 0
  store i32 %4, ptr %33, align 4
  store ptr %0, ptr %10, align 8
  store i8 %1, ptr %11, align 1
  store i32 %5, ptr %12, align 4
  %34 = load ptr, ptr %10, align 8
  %35 = load i8, ptr %11, align 1
  %36 = zext i8 %35 to i32
  switch i32 %36, label %85 [
    i32 8, label %37
    i32 9, label %45
    i32 10, label %53
    i32 6, label %61
    i32 11, label %69
    i32 7, label %77
  ]

37:                                               ; preds = %6
  call void @llvm.memcpy.p0.p0.i64(ptr align 4 %13, ptr align 4 %7, i64 4, i1 false)
  call void @llvm.memcpy.p0.p0.i64(ptr align 4 %14, ptr align 4 %8, i64 4, i1 false)
  call void @llvm.memcpy.p0.p0.i64(ptr align 4 %15, ptr align 4 %9, i64 4, i1 false)
  %38 = load i32, ptr %12, align 4
  %39 = getelementptr inbounds %class.XMMRegister, ptr %13, i32 0, i32 0
  %40 = load i32, ptr %39, align 4
  %41 = getelementptr inbounds %class.XMMRegister, ptr %14, i32 0, i32 0
  %42 = load i32, ptr %41, align 4
  %43 = getelementptr inbounds %class.XMMRegister, ptr %15, i32 0, i32 0
  %44 = load i32, ptr %43, align 4
  call void @_ZN14MacroAssembler6vpaddbE11XMMRegisterS0_S0_i(ptr noundef nonnull align 8 dereferenceable(40) %34, i32 %40, i32 %42, i32 %44, i32 noundef %38)
  br label %91

45:                                               ; preds = %6
  call void @llvm.memcpy.p0.p0.i64(ptr align 4 %16, ptr align 4 %7, i64 4, i1 false)
  call void @llvm.memcpy.p0.p0.i64(ptr align 4 %17, ptr align 4 %8, i64 4, i1 false)
  call void @llvm.memcpy.p0.p0.i64(ptr align 4 %18, ptr align 4 %9, i64 4, i1 false)
  %46 = load i32, ptr %12, align 4
  %47 = getelementptr inbounds %class.XMMRegister, ptr %16, i32 0, i32 0
  %48 = load i32, ptr %47, align 4
  %49 = getelementptr inbounds %class.XMMRegister, ptr %17, i32 0, i32 0
  %50 = load i32, ptr %49, align 4
  %51 = getelementptr inbounds %class.XMMRegister, ptr %18, i32 0, i32 0
  %52 = load i32, ptr %51, align 4
  call void @_ZN14MacroAssembler6vpaddwE11XMMRegisterS0_S0_i(ptr noundef nonnull align 8 dereferenceable(40) %34, i32 %48, i32 %50, i32 %52, i32 noundef %46)
  br label %91

53:                                               ; preds = %6
  call void @llvm.memcpy.p0.p0.i64(ptr align 4 %19, ptr align 4 %7, i64 4, i1 false)
  call void @llvm.memcpy.p0.p0.i64(ptr align 4 %20, ptr align 4 %8, i64 4, i1 false)
  call void @llvm.memcpy.p0.p0.i64(ptr align 4 %21, ptr align 4 %9, i64 4, i1 false)
  %54 = load i32, ptr %12, align 4
  %55 = getelementptr inbounds %class.XMMRegister, ptr %19, i32 0, i32 0
  %56 = load i32, ptr %55, align 4
  %57 = getelementptr inbounds %class.XMMRegister, ptr %20, i32 0, i32 0
  %58 = load i32, ptr %57, align 4
  %59 = getelementptr inbounds %class.XMMRegister, ptr %21, i32 0, i32 0
  %60 = load i32, ptr %59, align 4
  call void @_ZN14MacroAssembler6vpadddE11XMMRegisterS0_S0_i(ptr noundef nonnull align 8 dereferenceable(40) %34, i32 %56, i32 %58, i32 %60, i32 noundef %54)
  br label %91

61:                                               ; preds = %6
  call void @llvm.memcpy.p0.p0.i64(ptr align 4 %22, ptr align 4 %7, i64 4, i1 false)
  call void @llvm.memcpy.p0.p0.i64(ptr align 4 %23, ptr align 4 %8, i64 4, i1 false)
  call void @llvm.memcpy.p0.p0.i64(ptr align 4 %24, ptr align 4 %9, i64 4, i1 false)
  %62 = load i32, ptr %12, align 4
  %63 = getelementptr inbounds %class.XMMRegister, ptr %22, i32 0, i32 0
  %64 = load i32, ptr %63, align 4
  %65 = getelementptr inbounds %class.XMMRegister, ptr %23, i32 0, i32 0
  %66 = load i32, ptr %65, align 4
  %67 = getelementptr inbounds %class.XMMRegister, ptr %24, i32 0, i32 0
  %68 = load i32, ptr %67, align 4
  call void @_ZN9Assembler6vaddpsE11XMMRegisterS0_S0_i(ptr noundef nonnull align 8 dereferenceable(40) %34, i32 %64, i32 %66, i32 %68, i32 noundef %62)
  br label %91

69:                                               ; preds = %6
  call void @llvm.memcpy.p0.p0.i64(ptr align 4 %25, ptr align 4 %7, i64 4, i1 false)
  call void @llvm.memcpy.p0.p0.i64(ptr align 4 %26, ptr align 4 %8, i64 4, i1 false)
  call void @llvm.memcpy.p0.p0.i64(ptr align 4 %27, ptr align 4 %9, i64 4, i1 false)
  %70 = load i32, ptr %12, align 4
  %71 = getelementptr inbounds %class.XMMRegister, ptr %25, i32 0, i32 0
  %72 = load i32, ptr %71, align 4
  %73 = getelementptr inbounds %class.XMMRegister, ptr %26, i32 0, i32 0
  %74 = load i32, ptr %73, align 4
  %75 = getelementptr inbounds %class.XMMRegister, ptr %27, i32 0, i32 0
  %76 = load i32, ptr %75, align 4
  call void @_ZN9Assembler6vpaddqE11XMMRegisterS0_S0_i(ptr noundef nonnull align 8 dereferenceable(40) %34, i32 %72, i32 %74, i32 %76, i32 noundef %70)
  br label %91

77:                                               ; preds = %6
  call void @llvm.memcpy.p0.p0.i64(ptr align 4 %28, ptr align 4 %7, i64 4, i1 false)
  call void @llvm.memcpy.p0.p0.i64(ptr align 4 %29, ptr align 4 %8, i64 4, i1 false)
  call void @llvm.memcpy.p0.p0.i64(ptr align 4 %30, ptr align 4 %9, i64 4, i1 false)
  %78 = load i32, ptr %12, align 4
  %79 = getelementptr inbounds %class.XMMRegister, ptr %28, i32 0, i32 0
  %80 = load i32, ptr %79, align 4
  %81 = getelementptr inbounds %class.XMMRegister, ptr %29, i32 0, i32 0
  %82 = load i32, ptr %81, align 4
  %83 = getelementptr inbounds %class.XMMRegister, ptr %30, i32 0, i32 0
  %84 = load i32, ptr %83, align 4
  call void @_ZN9Assembler6vaddpdE11XMMRegisterS0_S0_i(ptr noundef nonnull align 8 dereferenceable(40) %34, i32 %80, i32 %82, i32 %84, i32 noundef %78)
  br label %91

85:                                               ; preds = %6
  br label %86

86:                                               ; preds = %85
  %87 = load ptr, ptr @g_assert_poison, align 8
  store i8 88, ptr %87, align 1
  %88 = load i8, ptr %11, align 1
  %89 = call noundef ptr @_Z9type2name9BasicType(i8 noundef zeroext %88)
  call void (i32, ptr, i32, ptr, ...) @_Z12report_fatal11VMErrorTypePKciS1_z(i32 noundef -536870912, ptr noundef @.str, i32 noundef 2525, ptr noundef @.str.4, ptr noundef %89) #8
  unreachable

90:                                               ; No predecessors!
  br label %91

91:                                               ; preds = %90, %77, %69, %61, %53, %45, %37
  ret void
}