; Function Attrs: mustprogress nounwind uwtable
define hidden void @_ZN17C2_MacroAssembler5vpaddE9BasicType11XMMRegisterS1_S1_i(ptr noundef nonnull align 8 dereferenceable(40) %0, i8 noundef zeroext %1, i32 %2, i32 %3, i32 %4, i32 noundef %5) local_unnamed_addr #0 align 2 {
  switch i8 %1, label %13 [
    i8 8, label %7
    i8 9, label %8
    i8 10, label %9
    i8 6, label %10
    i8 11, label %11
    i8 7, label %12
  ]

7:                                                ; preds = %6
  tail call void @_ZN14MacroAssembler6vpaddbE11XMMRegisterS0_S0_i(ptr noundef nonnull align 8 dereferenceable(40) %0, i32 %2, i32 %3, i32 %4, i32 noundef %5) #11
  br label %16

8:                                                ; preds = %6
  tail call void @_ZN14MacroAssembler6vpaddwE11XMMRegisterS0_S0_i(ptr noundef nonnull align 8 dereferenceable(40) %0, i32 %2, i32 %3, i32 %4, i32 noundef %5) #11
  br label %16

9:                                                ; preds = %6
  tail call void @_ZN9Assembler6vpadddE11XMMRegisterS0_S0_i(ptr noundef nonnull align 8 dereferenceable(40) %0, i32 %2, i32 %3, i32 %4, i32 noundef %5) #11
  br label %16

10:                                               ; preds = %6
  tail call void @_ZN9Assembler6vaddpsE11XMMRegisterS0_S0_i(ptr noundef nonnull align 8 dereferenceable(40) %0, i32 %2, i32 %3, i32 %4, i32 noundef %5) #11
  br label %16

11:                                               ; preds = %6
  tail call void @_ZN9Assembler6vpaddqE11XMMRegisterS0_S0_i(ptr noundef nonnull align 8 dereferenceable(40) %0, i32 %2, i32 %3, i32 %4, i32 noundef %5) #11
  br label %16

12:                                               ; preds = %6
  tail call void @_ZN9Assembler6vaddpdE11XMMRegisterS0_S0_i(ptr noundef nonnull align 8 dereferenceable(40) %0, i32 %2, i32 %3, i32 %4, i32 noundef %5) #11
  br label %16

13:                                               ; preds = %6
  %14 = load ptr, ptr @g_assert_poison, align 8
  store i8 88, ptr %14, align 1
  %15 = tail call noundef ptr @_Z9type2name9BasicType(i8 noundef zeroext %1) #11
  tail call void (i32, ptr, i32, ptr, ...) @_Z12report_fatal11VMErrorTypePKciS1_z(i32 noundef -536870912, ptr noundef nonnull @.str, i32 noundef 2525, ptr noundef nonnull @.str.4, ptr noundef %15) #12
  unreachable

16:                                               ; preds = %12, %11, %10, %9, %8, %7
  ret void
}